; Function Attrs: mustprogress nofree nounwind willreturn memory(write, inaccessiblemem: readwrite) uwtable
define dso_local noundef range(i32 0, 2) i32 @_Z20cmFortran_yylex_initPPv(ptr noundef writeonly %0) local_unnamed_addr #14 {
  %2 = icmp eq ptr %0, null
  br i1 %2, label %.sink.split, label %3

3:                                                ; preds = %1
  %calloc = tail call dereferenceable_or_null(144) ptr @calloc(i64 1, i64 144)
  store ptr %calloc, ptr %0, align 8, !tbaa !64
  %4 = icmp eq ptr %calloc, null
  br i1 %4, label %.sink.split, label %6

.sink.split:                                      ; preds = %3, %1
  %.sink = phi i32 [ 22, %1 ], [ 12, %3 ]
  %5 = tail call ptr @__errno_location() #33
  store i32 %.sink, ptr %5, align 4, !tbaa !59
  br label %6

6:                                                ; preds = %.sink.split, %3
  %.0 = phi i32 [ 0, %3 ], [ 1, %.sink.split ]
  ret i32 %.0
}